target datalayout = "e-m:e-p270:32:32-p271:32:32-p272:64:64-i64:64-i128:128-f80:128-n8:16:32:64-S128"
target triple = "x86_64-unknown-linux-gnu"

%"class.hermes::vm::HermesValue" = type { i64 }
%"class.hermes::vm::JSObject" = type { %"class.hermes::vm::GCCell", %"struct.hermes::vm::ObjectFlags", %"class.hermes::vm::GCPointer", %"class.hermes::vm::GCPointer.159", %"class.hermes::vm::GCPointer.160" }
%"class.hermes::vm::GCCell" = type { %union.anon.1 }
%union.anon.1 = type { %"class.hermes::vm::KindAndSize" }
%"class.hermes::vm::KindAndSize" = type { i32 }
%"struct.hermes::vm::ObjectFlags" = type { i32 }
%"class.hermes::vm::GCPointer" = type { %"class.hermes::vm::GCPointerBase" }
%"class.hermes::vm::GCPointerBase" = type { %"class.hermes::vm::CompressedPointer" }
%"class.hermes::vm::CompressedPointer" = type { %"class.hermes::vm::BasedPointer" }
%"class.hermes::vm::BasedPointer" = type { i32 }
%"class.hermes::vm::GCPointer.159" = type { %"class.hermes::vm::GCPointerBase" }
%"class.hermes::vm::GCPointer.160" = type { %"class.hermes::vm::GCPointerBase" }
%"class.hermes::vm::Handle" = type { %"class.hermes::vm::HandleBase" }
%"class.hermes::vm::HandleBase" = type { ptr }
%"class.hermes::vm::JSTypedArrayBase" = type { %"class.hermes::vm::JSObject", %"class.hermes::vm::GCPointer.161", i32, i32 }
%"class.hermes::vm::GCPointer.161" = type { %"class.hermes::vm::GCPointerBase" }

; Function Attrs: mustprogress nounwind uwtable
define linkonce_odr hidden noundef ptr @_ZNK6hermes2vm11HermesValue10getPointerEv(ptr noundef nonnull align 8 dereferenceable(8) %this) #0 comdat align 2 {
entry:
  %this.addr = alloca ptr, align 8
  store ptr %this, ptr %this.addr, align 8
  %this1 = load ptr, ptr %this.addr, align 8
  %raw_ = getelementptr inbounds %"class.hermes::vm::HermesValue", ptr %this1, i32 0, i32 0
  %0 = load i64, ptr %raw_, align 8
  %and = and i64 %0, 281474976710655
  %1 = inttoptr i64 %and to ptr
  ret ptr %1
}

; Function Attrs: mustprogress nounwind uwtable
define linkonce_odr hidden noundef ptr @_ZN4llvh16cast_convert_valIN6hermes2vm16JSTypedArrayBaseEPNS2_6GCCellES5_E4doitERKS5_(ptr noundef nonnull align 8 dereferenceable(8) %Val) #0 comdat align 2 {
entry:
  %Val.addr = alloca ptr, align 8
  %Res2 = alloca ptr, align 8
  store ptr %Val, ptr %Val.addr, align 8
  %0 = load ptr, ptr %Val.addr, align 8
  %1 = load ptr, ptr %0, align 8
  store ptr %1, ptr %Res2, align 8
  %2 = load ptr, ptr %Res2, align 8
  ret ptr %2
}

; Function Attrs: mustprogress nounwind uwtable
define linkonce_odr hidden noundef ptr @_ZNK6hermes2vm11HermesValue9getObjectEv(ptr noundef nonnull align 8 dereferenceable(8) %this) #0 comdat align 2 {
entry:
  %this.addr = alloca ptr, align 8
  store ptr %this, ptr %this.addr, align 8
  %this1 = load ptr, ptr %this.addr, align 8
  %call = call noundef ptr @_ZNK6hermes2vm11HermesValue10getPointerEv(ptr noundef nonnull align 8 dereferenceable(8) %this1)
  ret ptr %call
}

; Function Attrs: mustprogress nounwind uwtable
define linkonce_odr hidden noundef ptr @_ZNK6hermes2vm10HandleBase9handleRefEv(ptr noundef nonnull align 8 dereferenceable(8) %this) #0 comdat align 2 {
entry:
  %this.addr = alloca ptr, align 8
  store ptr %this, ptr %this.addr, align 8
  %this1 = load ptr, ptr %this.addr, align 8
  %handle_ = getelementptr inbounds %"class.hermes::vm::HandleBase", ptr %this1, i32 0, i32 0
  %0 = load ptr, ptr %handle_, align 8
  ret ptr %0
}

; Function Attrs: mustprogress nounwind uwtable
define linkonce_odr hidden noundef ptr @_ZN4llvh4castIN6hermes2vm16JSTypedArrayBaseENS2_6GCCellEEENS_10cast_rettyIT_PT0_E8ret_typeES8_(ptr noundef %Val) #0 comdat {
entry:
  %Val.addr = alloca ptr, align 8
  store ptr %Val, ptr %Val.addr, align 8
  %call = call noundef ptr @_ZN4llvh16cast_convert_valIN6hermes2vm16JSTypedArrayBaseEPNS2_6GCCellES5_E4doitERKS5_(ptr noundef nonnull align 8 dereferenceable(8) %Val.addr)
  ret ptr %call
}

; Function Attrs: mustprogress nounwind uwtable
define linkonce_odr hidden noundef ptr @_ZN6hermes2vm17HermesValueTraitsINS0_8JSObjectELb1EE6decodeENS0_11HermesValueE(i64 %value.coerce) #0 comdat align 2 {
entry:
  %value = alloca %"class.hermes::vm::HermesValue", align 8
  %coerce.dive = getelementptr inbounds %"class.hermes::vm::HermesValue", ptr %value, i32 0, i32 0
  store i64 %value.coerce, ptr %coerce.dive, align 8
  %call = call noundef ptr @_ZNK6hermes2vm11HermesValue9getObjectEv(ptr noundef nonnull align 8 dereferenceable(8) %value)
  ret ptr %call
}

; Function Attrs: mustprogress nounwind uwtable
define linkonce_odr hidden i64 @_ZNK6hermes2vm10HandleBase14getHermesValueEv(ptr noundef nonnull align 8 dereferenceable(8) %this) #0 comdat align 2 {
entry:
  %retval = alloca %"class.hermes::vm::HermesValue", align 8
  %this.addr = alloca ptr, align 8
  store ptr %this, ptr %this.addr, align 8
  %this1 = load ptr, ptr %this.addr, align 8
  %call = call noundef ptr @_ZNK6hermes2vm10HandleBase9handleRefEv(ptr noundef nonnull align 8 dereferenceable(8) %this1)
  call void @llvm.memcpy.p0.p0.i64(ptr align 8 %retval, ptr align 8 %call, i64 8, i1 false)
  %coerce.dive = getelementptr inbounds %"class.hermes::vm::HermesValue", ptr %retval, i32 0, i32 0
  %0 = load i64, ptr %coerce.dive, align 8
  ret i64 %0
}

; Function Attrs: mustprogress nounwind uwtable
define linkonce_odr hidden noundef i32 @_ZNK6hermes2vm16JSTypedArrayBase9getLengthEv(ptr noundef nonnull align 4 dereferenceable(32) %this) #0 comdat align 2 {
entry:
  %this.addr = alloca ptr, align 8
  store ptr %this, ptr %this.addr, align 8
  %this1 = load ptr, ptr %this.addr, align 8
  %length_ = getelementptr inbounds %"class.hermes::vm::JSTypedArrayBase", ptr %this1, i32 0, i32 2
  %0 = load i32, ptr %length_, align 4
  ret i32 %0
}

; Function Attrs: mustprogress nounwind uwtable
define linkonce_odr hidden noundef ptr @_ZN6hermes2vm6vmcastINS0_16JSTypedArrayBaseEEEPT_PNS0_6GCCellE(ptr noundef %cell) #0 comdat {
entry:
  %cell.addr = alloca ptr, align 8
  store ptr %cell, ptr %cell.addr, align 8
  %0 = load ptr, ptr %cell.addr, align 8
  %call = call noundef ptr @_ZN4llvh4castIN6hermes2vm16JSTypedArrayBaseENS2_6GCCellEEENS_10cast_rettyIT_PT0_E8ret_typeES8_(ptr noundef %0)
  ret ptr %call
}

; Function Attrs: mustprogress nounwind uwtable
define linkonce_odr hidden noundef ptr @_ZNK6hermes2vm6HandleINS0_8JSObjectEE3getEv(ptr noundef nonnull align 8 dereferenceable(8) %this) #0 comdat align 2 {
entry:
  %this.addr = alloca ptr, align 8
  %agg.tmp = alloca %"class.hermes::vm::HermesValue", align 8
  store ptr %this, ptr %this.addr, align 8
  %this1 = load ptr, ptr %this.addr, align 8
  %call = call i64 @_ZNK6hermes2vm10HandleBase14getHermesValueEv(ptr noundef nonnull align 8 dereferenceable(8) %this1)
  %coerce.dive = getelementptr inbounds %"class.hermes::vm::HermesValue", ptr %agg.tmp, i32 0, i32 0
  store i64 %call, ptr %coerce.dive, align 8
  %coerce.dive2 = getelementptr inbounds %"class.hermes::vm::HermesValue", ptr %agg.tmp, i32 0, i32 0
  %0 = load i64, ptr %coerce.dive2, align 8
  %call3 = call noundef ptr @_ZN6hermes2vm17HermesValueTraitsINS0_8JSObjectELb1EE6decodeENS0_11HermesValueE(i64 %0)
  ret ptr %call3
}

; Function Attrs: mustprogress nounwind uwtable
define hidden noundef zeroext i1 @_ZN6hermes2vm16JSTypedArrayBase19_haveOwnIndexedImplEPNS0_8JSObjectERNS0_7RuntimeEj(ptr noundef %selfObj, ptr noundef nonnull align 8 dereferenceable(9832) %0, i32 noundef %index) #0 align 2 {
entry:
  %selfObj.addr = alloca ptr, align 8
  %.addr = alloca ptr, align 8
  %index.addr = alloca i32, align 4
  %self = alloca ptr, align 8
  store ptr %selfObj, ptr %selfObj.addr, align 8
  store ptr %0, ptr %.addr, align 8
  store i32 %index, ptr %index.addr, align 4
  %1 = load ptr, ptr %selfObj.addr, align 8
  %call = call noundef ptr @_ZN6hermes2vm6vmcastINS0_16JSTypedArrayBaseEEEPT_PNS0_6GCCellE(ptr noundef %1)
  store ptr %call, ptr %self, align 8
  %2 = load i32, ptr %index.addr, align 4
  %3 = load ptr, ptr %self, align 8
  %call1 = call noundef i32 @_ZNK6hermes2vm16JSTypedArrayBase9getLengthEv(ptr noundef nonnull align 4 dereferenceable(32) %3)
  %cmp = icmp ult i32 %2, %call1
  ret i1 %cmp
}

; Function Attrs: mustprogress nounwind uwtable
define linkonce_odr hidden noundef ptr @_ZNK6hermes2vm6HandleINS0_8JSObjectEEdeEv(ptr noundef nonnull align 8 dereferenceable(8) %this) #0 comdat align 2 {
entry:
  %this.addr = alloca ptr, align 8
  store ptr %this, ptr %this.addr, align 8
  %this1 = load ptr, ptr %this.addr, align 8
  %call = call noundef ptr @_ZNK6hermes2vm6HandleINS0_8JSObjectEE3getEv(ptr noundef nonnull align 8 dereferenceable(8) %this1)
  ret ptr %call
}

; Function Attrs: mustprogress nounwind uwtable
define hidden noundef zeroext i1 @_ZN6hermes2vm16JSTypedArrayBase21_deleteOwnIndexedImplENS0_6HandleINS0_8JSObjectEEERNS0_7RuntimeEj(ptr %selfHandle.coerce, ptr noundef nonnull align 8 dereferenceable(9832) %runtime, i32 noundef %index) #0 align 2 {
entry:
  %selfHandle = alloca %"class.hermes::vm::Handle", align 8
  %runtime.addr = alloca ptr, align 8
  %index.addr = alloca i32, align 4
  %coerce.dive = getelementptr inbounds %"class.hermes::vm::Handle", ptr %selfHandle, i32 0, i32 0
  %coerce.dive1 = getelementptr inbounds %"class.hermes::vm::HandleBase", ptr %coerce.dive, i32 0, i32 0
  store ptr %selfHandle.coerce, ptr %coerce.dive1, align 8
  store ptr %runtime, ptr %runtime.addr, align 8
  store i32 %index, ptr %index.addr, align 4
  %call = call noundef ptr @_ZNK6hermes2vm6HandleINS0_8JSObjectEEdeEv(ptr noundef nonnull align 8 dereferenceable(8) %selfHandle)
  %0 = load ptr, ptr %runtime.addr, align 8
  %1 = load i32, ptr %index.addr, align 4
  %call2 = call noundef zeroext i1 @_ZN6hermes2vm16JSTypedArrayBase19_haveOwnIndexedImplEPNS0_8JSObjectERNS0_7RuntimeEj(ptr noundef %call, ptr noundef nonnull align 8 dereferenceable(9832) %0, i32 noundef %1)
  %lnot = xor i1 %call2, true
  ret i1 %lnot
}