; Function Attrs: mustprogress nofree norecurse nosync nounwind willreturn memory(read, inaccessiblemem: none) uwtable
define hidden noundef zeroext i1 @_ZN6hermes2vm16JSTypedArrayBase21_deleteOwnIndexedImplENS0_6HandleINS0_8JSObjectEEERNS0_7RuntimeEj(ptr readonly captures(none) %selfHandle.coerce, ptr nonnull readnone align 8 captures(none) %runtime, i32 noundef %index) #2 align 2 {
entry:
  %retval.sroa.0.0.copyload.i.i.i = load i64, ptr %selfHandle.coerce, align 8
  %and.i.i.i.i.i = and i64 %retval.sroa.0.0.copyload.i.i.i, 281474976710655
  %0 = inttoptr i64 %and.i.i.i.i.i to ptr
  %length_.i.i = getelementptr inbounds nuw i8, ptr %0, i64 24
  %1 = load i32, ptr %length_.i.i, align 4
  %cmp.i = icmp uge i32 %index, %1
  ret i1 %cmp.i
}